(dp0
S'Captain'
p1
(dp2
S'Shoot'
p3
V2
p4
sS'Shield'
p5
V12
p6
sS'Items'
p7
(lp8
VBlaster
p9
asS'Move'
p10
V5
p11
sS'Experience'
p12
V0
p13
sS'Fight'
p14
V2
p15
sS'Morale'
p16
V4
p17
sS'Skillset'
p18
(lp19
VRepair
p20
aVSabotage
p21
asS'Cost'
p22
I0
sS'Health'
p23
V12
p24
sS'Specialism'
p25
VEngineering
p26
ssS'Treasury'
p27
I425
sS'Name'
p28
Vrg
p29
sS'Troops'
p30
(lp31
VLackey
p32
aVMedic
p33
as.